V* {\u000a  margin: 0;\u000a  padding: 0;\u000a  width: 100%; }\u000a  * .container {\u000a    display: block;\u000a    width: 60%;\u000a    margin: 200px auto; }\u000a    * .container h1 {\u000a      font-family: 'Menlo' sans-serif;\u000a      text-align: center; }\u000a      * .container .emoji {\u000a        font-size: 3em;\u000a        margin-top: 40px; }\u000a
p1
.